target datalayout = "e-m:e-p270:32:32-p271:32:32-p272:64:64-i64:64-i128:128-f80:128-n8:16:32:64-S128"
target triple = "x86_64-pc-linux-gnu"

%class.Dependencies = type { ptr, [9 x ptr], i8, [9 x ptr], ptr, ptr, ptr, i64 }
%"class.Dependencies::DepValue" = type { i32 }
%class.OopRecorder = type { %class.ValueRecorder, %class.ValueRecorder.6, ptr }
%class.ValueRecorder = type <{ ptr, ptr, ptr, ptr, i8, [7 x i8] }>
%class.ValueRecorder.6 = type <{ ptr, ptr, ptr, ptr, i8, [7 x i8] }>

; Function Attrs: mustprogress nounwind uwtable
define linkonce_odr hidden noundef i32 @_ZN13ValueRecorderIP8_jobjectE10find_indexES1_(ptr noundef nonnull align 8 dereferenceable(33) %0, ptr noundef %1) #1 comdat align 2 {
  %3 = alloca ptr, align 8
  %4 = alloca ptr, align 8
  %5 = alloca i32, align 4
  store ptr %0, ptr %3, align 8
  store ptr %1, ptr %4, align 8
  %6 = load ptr, ptr %3, align 8
  %7 = load ptr, ptr %4, align 8
  %8 = call noundef i32 @_ZN13ValueRecorderIP8_jobjectE16maybe_find_indexES1_(ptr noundef nonnull align 8 dereferenceable(33) %6, ptr noundef %7)
  store i32 %8, ptr %5, align 4
  %9 = load i32, ptr %5, align 4
  %10 = icmp slt i32 %9, 0
  br i1 %10, label %11, label %14

11:                                               ; preds = %2
  %12 = load ptr, ptr %4, align 8
  %13 = call noundef i32 @_ZN13ValueRecorderIP8_jobjectE10add_handleES1_b(ptr noundef nonnull align 8 dereferenceable(33) %6, ptr noundef %12, i1 noundef zeroext true)
  store i32 %13, ptr %5, align 4
  br label %14

14:                                               ; preds = %11, %2
  %15 = load i32, ptr %5, align 4
  ret i32 %15
}

; Function Attrs: mustprogress nounwind uwtable
define linkonce_odr hidden noundef ptr @_ZN11OopRecorder6oop_atEi(ptr noundef nonnull align 8 dereferenceable(88) %0, i32 noundef %1) #1 comdat align 2 {
  %3 = alloca ptr, align 8
  %4 = alloca i32, align 4
  store ptr %0, ptr %3, align 8
  store i32 %1, ptr %4, align 4
  %5 = load ptr, ptr %3, align 8
  %6 = getelementptr inbounds %class.OopRecorder, ptr %5, i32 0, i32 0
  %7 = load i32, ptr %4, align 4
  %8 = call noundef ptr @_ZN13ValueRecorderIP8_jobjectE2atEi(ptr noundef nonnull align 8 dereferenceable(33) %6, i32 noundef %7)
  ret ptr %8
}

; Function Attrs: mustprogress nounwind uwtable
define linkonce_odr hidden noundef i32 @_ZNK12Dependencies8DepValue5indexEv(ptr noundef nonnull align 4 dereferenceable(4) %0) #1 comdat align 2 {
  %2 = alloca ptr, align 8
  store ptr %0, ptr %2, align 8
  %3 = load ptr, ptr %2, align 8
  %4 = getelementptr inbounds %"class.Dependencies::DepValue", ptr %3, i32 0, i32 0
  %5 = load i32, ptr %4, align 4
  %6 = icmp slt i32 %5, 0
  br i1 %6, label %7, label %12

7:                                                ; preds = %1
  %8 = getelementptr inbounds %"class.Dependencies::DepValue", ptr %3, i32 0, i32 0
  %9 = load i32, ptr %8, align 4
  %10 = add nsw i32 %9, 1
  %11 = sub nsw i32 0, %10
  br label %16

12:                                               ; preds = %1
  %13 = getelementptr inbounds %"class.Dependencies::DepValue", ptr %3, i32 0, i32 0
  %14 = load i32, ptr %13, align 4
  %15 = sub nsw i32 %14, 1
  br label %16

16:                                               ; preds = %12, %7
  %17 = phi i32 [ %11, %7 ], [ %15, %12 ]
  ret i32 %17
}

; Function Attrs: mustprogress nounwind uwtable
define linkonce_odr hidden noundef i32 @_ZN11OopRecorder10find_indexEP8_jobject(ptr noundef nonnull align 8 dereferenceable(88) %0, ptr noundef %1) #1 comdat align 2 {
  %3 = alloca ptr, align 8
  %4 = alloca ptr, align 8
  store ptr %0, ptr %3, align 8
  store ptr %1, ptr %4, align 8
  %5 = load ptr, ptr %3, align 8
  %6 = getelementptr inbounds %class.OopRecorder, ptr %5, i32 0, i32 2
  %7 = load ptr, ptr %6, align 8
  %8 = icmp ne ptr %7, null
  br i1 %8, label %9, label %14

9:                                                ; preds = %2
  %10 = getelementptr inbounds %class.OopRecorder, ptr %5, i32 0, i32 2
  %11 = load ptr, ptr %10, align 8
  %12 = load ptr, ptr %4, align 8
  %13 = call noundef i32 @_ZN12ObjectLookup10find_indexEP8_jobjectP11OopRecorder(ptr noundef nonnull align 8 dereferenceable(28) %11, ptr noundef %12, ptr noundef %5)
  br label %18

14:                                               ; preds = %2
  %15 = getelementptr inbounds %class.OopRecorder, ptr %5, i32 0, i32 0
  %16 = load ptr, ptr %4, align 8
  %17 = call noundef i32 @_ZN13ValueRecorderIP8_jobjectE10find_indexES1_(ptr noundef nonnull align 8 dereferenceable(33) %15, ptr noundef %16)
  br label %18

18:                                               ; preds = %14, %9
  %19 = phi i32 [ %13, %9 ], [ %17, %14 ]
  ret i32 %19
}

; Function Attrs: mustprogress nounwind uwtable
define linkonce_odr hidden noundef ptr @_ZNK12Dependencies8DepValue9as_objectEP11OopRecorder(ptr noundef nonnull align 4 dereferenceable(4) %0, ptr noundef %1) #1 comdat align 2 {
  %3 = alloca ptr, align 8
  %4 = alloca ptr, align 8
  store ptr %0, ptr %3, align 8
  store ptr %1, ptr %4, align 8
  %5 = load ptr, ptr %3, align 8
  %6 = load ptr, ptr %4, align 8
  %7 = call noundef i32 @_ZNK12Dependencies8DepValue5indexEv(ptr noundef nonnull align 4 dereferenceable(4) %5)
  %8 = call noundef ptr @_ZN11OopRecorder6oop_atEi(ptr noundef nonnull align 8 dereferenceable(88) %6, i32 noundef %7)
  ret ptr %8
}

; Function Attrs: mustprogress nounwind uwtable
define linkonce_odr hidden void @_ZN12Dependencies8DepValueC2EP11OopRecorderP8_jobjectPS0_(ptr noundef nonnull align 4 dereferenceable(4) %0, ptr noundef %1, ptr noundef %2, ptr noundef %3) unnamed_addr #1 comdat align 2 {
  %5 = alloca ptr, align 8
  %6 = alloca ptr, align 8
  %7 = alloca ptr, align 8
  %8 = alloca ptr, align 8
  store ptr %0, ptr %5, align 8
  store ptr %1, ptr %6, align 8
  store ptr %2, ptr %7, align 8
  store ptr %3, ptr %8, align 8
  %9 = load ptr, ptr %5, align 8
  %10 = load ptr, ptr %8, align 8
  %11 = icmp ne ptr %10, null
  br i1 %11, label %12, label %23

12:                                               ; preds = %4
  %13 = load ptr, ptr %8, align 8
  %14 = load ptr, ptr %6, align 8
  %15 = call noundef ptr @_ZNK12Dependencies8DepValue9as_objectEP11OopRecorder(ptr noundef nonnull align 4 dereferenceable(4) %13, ptr noundef %14)
  %16 = load ptr, ptr %7, align 8
  %17 = icmp eq ptr %15, %16
  br i1 %17, label %18, label %23

18:                                               ; preds = %12
  %19 = load ptr, ptr %8, align 8
  %20 = getelementptr inbounds %"class.Dependencies::DepValue", ptr %19, i32 0, i32 0
  %21 = load i32, ptr %20, align 4
  %22 = getelementptr inbounds %"class.Dependencies::DepValue", ptr %9, i32 0, i32 0
  store i32 %21, ptr %22, align 4
  br label %30

23:                                               ; preds = %12, %4
  %24 = load ptr, ptr %6, align 8
  %25 = load ptr, ptr %7, align 8
  %26 = call noundef i32 @_ZN11OopRecorder10find_indexEP8_jobject(ptr noundef nonnull align 8 dereferenceable(88) %24, ptr noundef %25)
  %27 = add nsw i32 %26, 1
  %28 = sub nsw i32 0, %27
  %29 = getelementptr inbounds %"class.Dependencies::DepValue", ptr %9, i32 0, i32 0
  store i32 %28, ptr %29, align 4
  br label %30

30:                                               ; preds = %23, %18
  ret void
}

; Function Attrs: mustprogress nounwind uwtable
define hidden void @_ZN12Dependencies29assert_call_site_target_valueEP7oopDescS1_(ptr noundef nonnull align 8 dereferenceable(192) %0, ptr noundef %1, ptr noundef %2) #1 align 2 {
  %4 = alloca ptr, align 8
  %5 = alloca ptr, align 8
  %6 = alloca ptr, align 8
  %7 = alloca %"class.Dependencies::DepValue", align 4
  %8 = alloca %"class.Dependencies::DepValue", align 4
  store ptr %0, ptr %4, align 8
  store ptr %1, ptr %5, align 8
  store ptr %2, ptr %6, align 8
  %9 = load ptr, ptr %4, align 8
  %10 = getelementptr inbounds %class.Dependencies, ptr %9, i32 0, i32 4
  %11 = load ptr, ptr %10, align 8
  %12 = load ptr, ptr %5, align 8
  %13 = call noundef ptr @_ZN10JNIHandles10make_localEP7oopDesc(ptr noundef %12)
  call void @_ZN12Dependencies8DepValueC2EP11OopRecorderP8_jobjectPS0_(ptr noundef nonnull align 4 dereferenceable(4) %7, ptr noundef %11, ptr noundef %13, ptr noundef null)
  %14 = getelementptr inbounds %class.Dependencies, ptr %9, i32 0, i32 4
  %15 = load ptr, ptr %14, align 8
  %16 = load ptr, ptr %6, align 8
  %17 = call noundef ptr @_ZN10JNIHandles10make_localEP7oopDesc(ptr noundef %16)
  call void @_ZN12Dependencies8DepValueC2EP11OopRecorderP8_jobjectPS0_(ptr noundef nonnull align 4 dereferenceable(4) %8, ptr noundef %15, ptr noundef %17, ptr noundef null)
  %18 = getelementptr inbounds %"class.Dependencies::DepValue", ptr %7, i32 0, i32 0
  %19 = load i32, ptr %18, align 4
  %20 = getelementptr inbounds %"class.Dependencies::DepValue", ptr %8, i32 0, i32 0
  %21 = load i32, ptr %20, align 4
  call void @_ZN12Dependencies15assert_common_2ENS_7DepTypeENS_8DepValueES1_(ptr noundef nonnull align 8 dereferenceable(192) %9, i32 noundef 8, i32 %19, i32 %21)
  ret void
}