; Function Attrs: mustprogress nounwind uwtable
define hidden void @_ZN12Dependencies29assert_call_site_target_valueEP7oopDescS1_(ptr nocapture noundef nonnull readonly align 8 dereferenceable(192) %0, ptr noundef %1, ptr noundef %2) local_unnamed_addr #0 align 2 {
  %4 = getelementptr inbounds i8, ptr %0, i64 160
  %5 = load ptr, ptr %4, align 8
  %6 = tail call noundef ptr @_ZN10JNIHandles10make_localEP7oopDesc(ptr noundef %1) #18
  %7 = getelementptr inbounds i8, ptr %5, i64 80
  %8 = load ptr, ptr %7, align 8
  %.not.i.i = icmp eq ptr %8, null
  br i1 %.not.i.i, label %11, label %9

9:                                                ; preds = %3
  %10 = tail call noundef i32 @_ZN12ObjectLookup10find_indexEP8_jobjectP11OopRecorder(ptr noundef nonnull align 8 dereferenceable(28) %8, ptr noundef %6, ptr noundef nonnull %5) #18
  br label %_ZN12Dependencies8DepValueC2EP11OopRecorderP8_jobjectPS0_.exit

11:                                               ; preds = %3
  %12 = tail call noundef i32 @_ZN13ValueRecorderIP8_jobjectE16maybe_find_indexES1_(ptr noundef nonnull align 8 dereferenceable(33) %5, ptr noundef %6) #18
  %13 = icmp slt i32 %12, 0
  br i1 %13, label %14, label %_ZN12Dependencies8DepValueC2EP11OopRecorderP8_jobjectPS0_.exit

14:                                               ; preds = %11
  %15 = tail call noundef i32 @_ZN13ValueRecorderIP8_jobjectE10add_handleES1_b(ptr noundef nonnull align 8 dereferenceable(33) %5, ptr noundef %6, i1 noundef zeroext true) #18
  br label %_ZN12Dependencies8DepValueC2EP11OopRecorderP8_jobjectPS0_.exit

_ZN12Dependencies8DepValueC2EP11OopRecorderP8_jobjectPS0_.exit: ; preds = %9, %11, %14
  %16 = phi i32 [ %10, %9 ], [ %15, %14 ], [ %12, %11 ]
  %17 = load ptr, ptr %4, align 8
  %18 = tail call noundef ptr @_ZN10JNIHandles10make_localEP7oopDesc(ptr noundef %2) #18
  %19 = getelementptr inbounds i8, ptr %17, i64 80
  %20 = load ptr, ptr %19, align 8
  %.not.i.i3 = icmp eq ptr %20, null
  br i1 %.not.i.i3, label %23, label %21

21:                                               ; preds = %_ZN12Dependencies8DepValueC2EP11OopRecorderP8_jobjectPS0_.exit
  %22 = tail call noundef i32 @_ZN12ObjectLookup10find_indexEP8_jobjectP11OopRecorder(ptr noundef nonnull align 8 dereferenceable(28) %20, ptr noundef %18, ptr noundef nonnull %17) #18
  br label %_ZN12Dependencies8DepValueC2EP11OopRecorderP8_jobjectPS0_.exit4

23:                                               ; preds = %_ZN12Dependencies8DepValueC2EP11OopRecorderP8_jobjectPS0_.exit
  %24 = tail call noundef i32 @_ZN13ValueRecorderIP8_jobjectE16maybe_find_indexES1_(ptr noundef nonnull align 8 dereferenceable(33) %17, ptr noundef %18) #18
  %25 = icmp slt i32 %24, 0
  br i1 %25, label %26, label %_ZN12Dependencies8DepValueC2EP11OopRecorderP8_jobjectPS0_.exit4

26:                                               ; preds = %23
  %27 = tail call noundef i32 @_ZN13ValueRecorderIP8_jobjectE10add_handleES1_b(ptr noundef nonnull align 8 dereferenceable(33) %17, ptr noundef %18, i1 noundef zeroext true) #18
  br label %_ZN12Dependencies8DepValueC2EP11OopRecorderP8_jobjectPS0_.exit4

_ZN12Dependencies8DepValueC2EP11OopRecorderP8_jobjectPS0_.exit4: ; preds = %21, %23, %26
  %28 = phi i32 [ %22, %21 ], [ %27, %26 ], [ %24, %23 ]
  %29 = xor i32 %16, -1
  %30 = xor i32 %28, -1
  tail call void @_ZN12Dependencies15assert_common_2ENS_7DepTypeENS_8DepValueES1_(ptr noundef nonnull align 8 dereferenceable(192) %0, i32 noundef 8, i32 %29, i32 %30)
  ret void
}